target datalayout = "e-m:e-p270:32:32-p271:32:32-p272:64:64-i64:64-i128:128-f80:128-n8:16:32:64-S128"
target triple = "x86_64-unknown-linux-gnu"

%struct.pcpu_hot = type { %union.anon.17 }
%union.anon.17 = type { %struct.anon.18, [16 x i8] }
%struct.anon.18 = type { ptr, i32, i32, i64, i64, ptr, i16, i8 }

@audit_enabled = external dso_local local_unnamed_addr global i32, align 4
@.str = private unnamed_addr constant [25 x i8] c"netlabel: auid=%u ses=%u\00", align 1
@.str.1 = private unnamed_addr constant [9 x i8] c" subj=%s\00", align 1
@pcpu_hot = external dso_local global %struct.pcpu_hot, section ".data..percpu..shared_aligned", align 64

; Function Attrs: cold fn_ret_thunk_extern nounwind null_pointer_is_valid optsize
define dso_local i32 @netlbl_netlink_init() local_unnamed_addr #0 section ".init.text" align 16 {
  %1 = tail call i32 @netlbl_mgmt_genl_init() #4
  %2 = icmp eq i32 %1, 0
  br i1 %2, label %3, label %11

3:                                                ; preds = %0
  %4 = tail call i32 @netlbl_cipsov4_genl_init() #4
  %5 = icmp eq i32 %4, 0
  br i1 %5, label %6, label %11

6:                                                ; preds = %3
  %7 = tail call i32 @netlbl_calipso_genl_init() #4
  %8 = icmp eq i32 %7, 0
  br i1 %8, label %9, label %11

9:                                                ; preds = %6
  %10 = tail call i32 @netlbl_unlabel_genl_init() #4
  br label %11

11:                                               ; preds = %9, %6, %3, %0
  %12 = phi i32 [ %10, %9 ], [ %1, %0 ], [ %4, %3 ], [ %7, %6 ]
  ret i32 %12
}

; Function Attrs: nocallback nofree nosync nounwind willreturn memory(argmem: readwrite)
declare void @llvm.lifetime.start.p0(i64 immarg, ptr nocapture) #1

; Function Attrs: null_pointer_is_valid
declare dso_local i32 @netlbl_mgmt_genl_init() local_unnamed_addr #2

; Function Attrs: null_pointer_is_valid
declare dso_local i32 @netlbl_cipsov4_genl_init() local_unnamed_addr #2

; Function Attrs: null_pointer_is_valid
declare dso_local i32 @netlbl_calipso_genl_init() local_unnamed_addr #2

; Function Attrs: null_pointer_is_valid
declare dso_local i32 @netlbl_unlabel_genl_init() local_unnamed_addr #2

; Function Attrs: nocallback nofree nosync nounwind willreturn memory(argmem: readwrite)
declare void @llvm.lifetime.end.p0(i64 immarg, ptr nocapture) #1

; Function Attrs: fn_ret_thunk_extern nounwind null_pointer_is_valid
define dso_local ptr @netlbl_audit_start_common(i32 noundef %0, ptr nocapture noundef readonly %1) local_unnamed_addr #3 align 16 {
  %3 = alloca ptr, align 8
  %4 = alloca i32, align 4
  call void @llvm.lifetime.start.p0(i64 8, ptr nonnull %3) #4
  store ptr null, ptr %3, align 8, !annotation !5
  call void @llvm.lifetime.start.p0(i64 4, ptr nonnull %4) #4
  store i32 0, ptr %4, align 4, !annotation !5
  %5 = load i32, ptr @audit_enabled, align 4
  %6 = icmp eq i32 %5, 0
  br i1 %6, label %28, label %7

7:                                                ; preds = %2
  %8 = tail call i64 asm "movq %gs:${1:P}, $0", "=r,p,~{dirflag},~{fpsr},~{flags}"(ptr nonnull @pcpu_hot) #5, !srcloc !6
  %9 = inttoptr i64 %8 to ptr
  %10 = getelementptr inbounds i8, ptr %9, i64 1976
  %11 = load ptr, ptr %10, align 8
  %12 = tail call ptr @audit_log_start(ptr noundef %11, i32 noundef 2080, i32 noundef %0) #4
  %13 = icmp eq ptr %12, null
  br i1 %13, label %28, label %14

14:                                               ; preds = %7
  %15 = getelementptr inbounds i8, ptr %1, i64 4
  %16 = load i32, ptr %15, align 4
  %17 = getelementptr inbounds i8, ptr %1, i64 8
  %18 = load i32, ptr %17, align 4
  tail call void (ptr, ptr, ...) @audit_log_format(ptr noundef nonnull %12, ptr noundef nonnull @.str, i32 noundef %16, i32 noundef %18) #4
  %19 = load i32, ptr %1, align 4
  %20 = icmp eq i32 %19, 0
  br i1 %20, label %28, label %21

21:                                               ; preds = %14
  %22 = call i32 @security_secid_to_secctx(i32 noundef %19, ptr noundef nonnull %3, ptr noundef nonnull %4) #4
  %23 = icmp eq i32 %22, 0
  br i1 %23, label %24, label %28

24:                                               ; preds = %21
  %25 = load ptr, ptr %3, align 8
  call void (ptr, ptr, ...) @audit_log_format(ptr noundef nonnull %12, ptr noundef nonnull @.str.1, ptr noundef %25) #4
  %26 = load ptr, ptr %3, align 8
  %27 = load i32, ptr %4, align 4
  call void @security_release_secctx(ptr noundef %26, i32 noundef %27) #4
  br label %28

28:                                               ; preds = %24, %21, %14, %7, %2
  %29 = phi ptr [ null, %2 ], [ null, %7 ], [ %12, %24 ], [ %12, %21 ], [ %12, %14 ]
  call void @llvm.lifetime.end.p0(i64 4, ptr nonnull %4) #4
  call void @llvm.lifetime.end.p0(i64 8, ptr nonnull %3) #4
  ret ptr %29
}

; Function Attrs: null_pointer_is_valid
declare dso_local ptr @audit_log_start(ptr noundef, i32 noundef, i32 noundef) local_unnamed_addr #2

; Function Attrs: null_pointer_is_valid
declare dso_local void @audit_log_format(ptr noundef, ptr noundef, ...) local_unnamed_addr #2

; Function Attrs: null_pointer_is_valid
declare dso_local i32 @security_secid_to_secctx(i32 noundef, ptr noundef, ptr noundef) local_unnamed_addr #2

; Function Attrs: null_pointer_is_valid
declare dso_local void @security_release_secctx(ptr noundef, i32 noundef) local_unnamed_addr #2


!llvm.module.flags = !{!0, !1, !2, !3, !4}

!0 = !{i32 1, !"wchar_size", i32 2}
!1 = !{i32 8, !"cf-protection-branch", i32 1}
!2 = !{i32 4, !"function_return_thunk_extern", i32 1}
!3 = !{i32 4, !"indirect_branch_cs_prefix", i32 1}
!4 = !{i32 4, !"SkipRaxSetup", i32 1}
!5 = !{!"auto-init"}
!6 = !{i64 2148301243}
